; Function Attrs: nounwind uwtable
define void @Abc_NodeMffcLabel_rec(ptr noundef %0, i32 noundef %1, ptr noundef %2) local_unnamed_addr #0 {
  %.not = icmp eq i32 %1, 0
  br i1 %.not, label %4, label %11

4:                                                ; preds = %3
  %5 = getelementptr i8, ptr %0, i64 20
  %.val20 = load i32, ptr %5, align 4
  %6 = and i32 %.val20, 15
  switch i32 %6, label %7 [
    i32 5, label %72
    i32 2, label %72
  ]

7:                                                ; preds = %4
  %8 = getelementptr inbounds nuw i8, ptr %0, i64 44
  %9 = load i32, ptr %8, align 4
  %10 = icmp sgt i32 %9, 0
  br i1 %10, label %72, label %11

11:                                               ; preds = %7, %3
  %.val2.i = load ptr, ptr %0, align 8
  %12 = getelementptr i8, ptr %0, i64 16
  %.val3.i = load i32, ptr %12, align 8
  %13 = getelementptr inbounds nuw i8, ptr %.val2.i, i64 224
  %14 = add nsw i32 %.val3.i, 1
  tail call fastcc void @Vec_IntFillExtra(ptr noundef nonnull %13, i32 noundef %14)
  %15 = getelementptr i8, ptr %.val2.i, i64 232
  %.val.i.i.i = load ptr, ptr %15, align 8
  %16 = sext i32 %.val3.i to i64
  %17 = getelementptr inbounds i32, ptr %.val.i.i.i, i64 %16
  %18 = load i32, ptr %17, align 4
  %.val.i = load ptr, ptr %0, align 8
  %19 = getelementptr inbounds nuw i8, ptr %.val.i, i64 216
  %20 = load i32, ptr %19, align 8
  %.not26 = icmp eq i32 %18, %20
  br i1 %.not26, label %72, label %21

21:                                               ; preds = %11
  %.val19 = load i32, ptr %12, align 8
  %22 = getelementptr inbounds nuw i8, ptr %.val.i, i64 224
  %23 = add nsw i32 %.val19, 1
  tail call fastcc void @Vec_IntFillExtra(ptr noundef nonnull %22, i32 noundef %23)
  %24 = getelementptr i8, ptr %.val.i, i64 232
  %.val.i.i.i23 = load ptr, ptr %24, align 8
  %25 = sext i32 %.val19 to i64
  %26 = getelementptr inbounds i32, ptr %.val.i.i.i23, i64 %25
  store i32 %20, ptr %26, align 4
  %27 = getelementptr i8, ptr %0, i64 28
  %.val27 = load i32, ptr %27, align 4
  %28 = icmp sgt i32 %.val27, 0
  br i1 %28, label %.lr.ph, label %.critedge

.lr.ph:                                           ; preds = %21
  %29 = getelementptr i8, ptr %0, i64 32
  br label %30

30:                                               ; preds = %.lr.ph, %30
  %indvars.iv = phi i64 [ 0, %.lr.ph ], [ %indvars.iv.next, %30 ]
  %.val21 = load ptr, ptr %0, align 8
  %.val22 = load ptr, ptr %29, align 8
  %31 = getelementptr i8, ptr %.val21, i64 32
  %.val21.val = load ptr, ptr %31, align 8
  %32 = getelementptr i8, ptr %.val21.val, i64 8
  %.val21.val.val = load ptr, ptr %32, align 8
  %33 = getelementptr inbounds nuw i32, ptr %.val22, i64 %indvars.iv
  %34 = load i32, ptr %33, align 4
  %35 = sext i32 %34 to i64
  %36 = getelementptr inbounds ptr, ptr %.val21.val.val, i64 %35
  %37 = load ptr, ptr %36, align 8
  tail call void @Abc_NodeMffcLabel_rec(ptr noundef %37, i32 noundef 0, ptr noundef %2)
  %indvars.iv.next = add nuw nsw i64 %indvars.iv, 1
  %.val = load i32, ptr %27, align 4
  %38 = sext i32 %.val to i64
  %39 = icmp slt i64 %indvars.iv.next, %38
  br i1 %39, label %30, label %.critedge, !llvm.loop !12

.critedge:                                        ; preds = %30, %21
  %.not17 = icmp eq ptr %2, null
  br i1 %.not17, label %72, label %40

40:                                               ; preds = %.critedge
  %41 = getelementptr inbounds nuw i8, ptr %2, i64 4
  %42 = load i32, ptr %41, align 4
  %43 = load i32, ptr %2, align 8
  %44 = icmp eq i32 %42, %43
  br i1 %44, label %45, label %.Vec_PtrGrow.exit11_crit_edge.i

.Vec_PtrGrow.exit11_crit_edge.i:                  ; preds = %40
  %.phi.trans.insert.i = getelementptr inbounds nuw i8, ptr %2, i64 8
  %.pre.i = load ptr, ptr %.phi.trans.insert.i, align 8
  br label %Vec_PtrPush.exit

45:                                               ; preds = %40
  %46 = icmp slt i32 %42, 16
  br i1 %46, label %47, label %55

47:                                               ; preds = %45
  %48 = getelementptr inbounds nuw i8, ptr %2, i64 8
  %49 = load ptr, ptr %48, align 8
  %.not9.i.i = icmp eq ptr %49, null
  br i1 %.not9.i.i, label %52, label %50

50:                                               ; preds = %47
  %51 = tail call dereferenceable_or_null(128) ptr @realloc(ptr noundef nonnull %49, i64 noundef 128) #8
  br label %Vec_PtrGrow.exit.i

52:                                               ; preds = %47
  %53 = tail call noalias dereferenceable_or_null(128) ptr @malloc(i64 noundef 128) #9
  br label %Vec_PtrGrow.exit.i

Vec_PtrGrow.exit.i:                               ; preds = %52, %50
  %54 = phi ptr [ %51, %50 ], [ %53, %52 ]
  store ptr %54, ptr %48, align 8
  store i32 16, ptr %2, align 8
  br label %Vec_PtrPush.exit

55:                                               ; preds = %45
  %56 = shl nuw nsw i32 %42, 1
  %57 = getelementptr inbounds nuw i8, ptr %2, i64 8
  %58 = load ptr, ptr %57, align 8
  %.not9.i10.i = icmp eq ptr %58, null
  %59 = zext nneg i32 %56 to i64
  %60 = shl nuw nsw i64 %59, 3
  br i1 %.not9.i10.i, label %63, label %61

61:                                               ; preds = %55
  %62 = tail call ptr @realloc(ptr noundef nonnull %58, i64 noundef %60) #8
  br label %65

63:                                               ; preds = %55
  %64 = tail call noalias ptr @malloc(i64 noundef %60) #9
  br label %65

65:                                               ; preds = %63, %61
  %66 = phi ptr [ %62, %61 ], [ %64, %63 ]
  store ptr %66, ptr %57, align 8
  store i32 %56, ptr %2, align 8
  br label %Vec_PtrPush.exit

Vec_PtrPush.exit:                                 ; preds = %.Vec_PtrGrow.exit11_crit_edge.i, %Vec_PtrGrow.exit.i, %65
  %67 = phi ptr [ %.pre.i, %.Vec_PtrGrow.exit11_crit_edge.i ], [ %66, %65 ], [ %54, %Vec_PtrGrow.exit.i ]
  %68 = load i32, ptr %41, align 4
  %69 = add nsw i32 %68, 1
  store i32 %69, ptr %41, align 4
  %70 = sext i32 %68 to i64
  %71 = getelementptr inbounds ptr, ptr %67, i64 %70
  store ptr %0, ptr %71, align 8
  br label %72

72:                                               ; preds = %4, %4, %11, %7, %Vec_PtrPush.exit, %.critedge
  ret void
}